target datalayout = "e-m:e-p270:32:32-p271:32:32-p272:64:64-i64:64-i128:128-f80:128-n8:16:32:64-S128"
target triple = "x86_64-pc-linux-gnu"

%struct.strvec = type { ptr, i64, i64 }
%struct.ref_exclusions = type { %struct.string_list, %struct.strvec, i8 }
%struct.string_list = type { ptr, i64, i64, i8, ptr }
%struct.string_list_item = type { ptr, ptr }

; Function Attrs: nounwind uwtable
define dso_local i32 @ref_excluded(ptr noundef %0, ptr noundef %1) #0 {
  %3 = alloca i32, align 4
  %4 = alloca ptr, align 8
  %5 = alloca ptr, align 8
  %6 = alloca ptr, align 8
  %7 = alloca ptr, align 8
  %8 = alloca i32, align 4
  store ptr %0, ptr %4, align 8, !tbaa !143
  store ptr %1, ptr %5, align 8, !tbaa !39
  call void @llvm.lifetime.start.p0(i64 8, ptr %6) #12
  %9 = load ptr, ptr %5, align 8, !tbaa !39
  %10 = call ptr @strip_namespace(ptr noundef %9)
  store ptr %10, ptr %6, align 8, !tbaa !39
  call void @llvm.lifetime.start.p0(i64 8, ptr %7) #12
  %11 = load ptr, ptr %4, align 8, !tbaa !143
  %12 = getelementptr inbounds nuw %struct.ref_exclusions, ptr %11, i32 0, i32 0
  %13 = getelementptr inbounds nuw %struct.string_list, ptr %12, i32 0, i32 0
  %14 = load ptr, ptr %13, align 8, !tbaa !145
  store ptr %14, ptr %7, align 8, !tbaa !146
  br label %15

15:                                               ; preds = %41, %2
  %16 = load ptr, ptr %7, align 8, !tbaa !146
  %17 = icmp ne ptr %16, null
  br i1 %17, label %18, label %30

18:                                               ; preds = %15
  %19 = load ptr, ptr %7, align 8, !tbaa !146
  %20 = load ptr, ptr %4, align 8, !tbaa !143
  %21 = getelementptr inbounds nuw %struct.ref_exclusions, ptr %20, i32 0, i32 0
  %22 = getelementptr inbounds nuw %struct.string_list, ptr %21, i32 0, i32 0
  %23 = load ptr, ptr %22, align 8, !tbaa !145
  %24 = load ptr, ptr %4, align 8, !tbaa !143
  %25 = getelementptr inbounds nuw %struct.ref_exclusions, ptr %24, i32 0, i32 0
  %26 = getelementptr inbounds nuw %struct.string_list, ptr %25, i32 0, i32 1
  %27 = load i64, ptr %26, align 8, !tbaa !147
  %28 = getelementptr inbounds nuw %struct.string_list_item, ptr %23, i64 %27
  %29 = icmp ult ptr %19, %28
  br label %30

30:                                               ; preds = %18, %15
  %31 = phi i1 [ false, %15 ], [ %29, %18 ]
  br i1 %31, label %32, label %44

32:                                               ; preds = %30
  %33 = load ptr, ptr %7, align 8, !tbaa !146
  %34 = getelementptr inbounds nuw %struct.string_list_item, ptr %33, i32 0, i32 0
  %35 = load ptr, ptr %34, align 8, !tbaa !148
  %36 = load ptr, ptr %5, align 8, !tbaa !39
  %37 = call i32 @wildmatch(ptr noundef %35, ptr noundef %36, i32 noundef 0)
  %38 = icmp ne i32 %37, 0
  br i1 %38, label %40, label %39

39:                                               ; preds = %32
  store i32 1, ptr %3, align 4
  store i32 1, ptr %8, align 4
  br label %53

40:                                               ; preds = %32
  br label %41

41:                                               ; preds = %40
  %42 = load ptr, ptr %7, align 8, !tbaa !146
  %43 = getelementptr inbounds nuw %struct.string_list_item, ptr %42, i32 1
  store ptr %43, ptr %7, align 8, !tbaa !146
  br label %15, !llvm.loop !150

44:                                               ; preds = %30
  %45 = load ptr, ptr %6, align 8, !tbaa !39
  %46 = load ptr, ptr %5, align 8, !tbaa !39
  %47 = load ptr, ptr %4, align 8, !tbaa !143
  %48 = getelementptr inbounds nuw %struct.ref_exclusions, ptr %47, i32 0, i32 1
  %49 = call i32 @ref_is_hidden(ptr noundef %45, ptr noundef %46, ptr noundef %48)
  %50 = icmp ne i32 %49, 0
  br i1 %50, label %51, label %52

51:                                               ; preds = %44
  store i32 1, ptr %3, align 4
  store i32 1, ptr %8, align 4
  br label %53

52:                                               ; preds = %44
  store i32 0, ptr %3, align 4
  store i32 1, ptr %8, align 4
  br label %53

53:                                               ; preds = %52, %51, %39
  call void @llvm.lifetime.end.p0(i64 8, ptr %7) #12
  call void @llvm.lifetime.end.p0(i64 8, ptr %6) #12
  %54 = load i32, ptr %3, align 4
  ret i32 %54
}