; Function Attrs: nounwind uwtable
define dso_local range(i32 0, 2) i32 @ref_excluded(ptr noundef %0, ptr noundef %1) local_unnamed_addr #2 {
  %3 = tail call ptr @strip_namespace(ptr noundef %1) #26
  %4 = load ptr, ptr %0, align 8, !tbaa !114
  %.not15 = icmp eq ptr %4, null
  br i1 %.not15, label %.critedge, label %.lr.ph

.lr.ph:                                           ; preds = %2
  %5 = getelementptr inbounds nuw i8, ptr %0, i64 8
  %6 = load ptr, ptr %0, align 8, !tbaa !114
  %7 = load i64, ptr %5, align 8, !tbaa !115
  %8 = getelementptr inbounds nuw %struct.string_list_item, ptr %6, i64 %7
  %9 = icmp ult ptr %4, %8
  br i1 %9, label %.lr.ph19, label %.critedge

10:                                               ; preds = %.lr.ph19
  %11 = getelementptr inbounds nuw i8, ptr %.01618, i64 16
  %12 = load ptr, ptr %0, align 8, !tbaa !114
  %13 = load i64, ptr %5, align 8, !tbaa !115
  %14 = getelementptr inbounds nuw %struct.string_list_item, ptr %12, i64 %13
  %15 = icmp ult ptr %11, %14
  br i1 %15, label %.lr.ph19, label %.critedge

.lr.ph19:                                         ; preds = %.lr.ph, %10
  %.01618 = phi ptr [ %11, %10 ], [ %4, %.lr.ph ]
  %16 = load ptr, ptr %.01618, align 8, !tbaa !116
  %17 = tail call i32 @wildmatch(ptr noundef %16, ptr noundef %1, i32 noundef 0) #26
  %.not14 = icmp eq i32 %17, 0
  br i1 %.not14, label %.loopexit, label %10

.critedge:                                        ; preds = %10, %.lr.ph, %2
  %18 = getelementptr inbounds nuw i8, ptr %0, i64 40
  %19 = tail call i32 @ref_is_hidden(ptr noundef %3, ptr noundef %1, ptr noundef nonnull %18) #26
  %.not13 = icmp ne i32 %19, 0
  %. = zext i1 %.not13 to i32
  br label %.loopexit

.loopexit:                                        ; preds = %.lr.ph19, %.critedge
  %.012 = phi i32 [ %., %.critedge ], [ 1, %.lr.ph19 ]
  ret i32 %.012
}